; Function Attrs: mustprogress nofree norecurse nosync nounwind willreturn memory(argmem: write) uwtable
define hidden void @_ZN3vas2ot13ObjectTracker7BuilderC2Ev(ptr noundef nonnull align 8 dereferenceable(64) initializes((0, 13), (24, 28), (32, 40)) %0) unnamed_addr #9 align 2 personality ptr @__gxx_personality_v0 {
  store i32 0, ptr %0, align 8, !tbaa !166
  %2 = getelementptr inbounds nuw i8, ptr %0, i64 4
  store i32 -1, ptr %2, align 4, !tbaa !177
  %3 = getelementptr inbounds nuw i8, ptr %0, i64 8
  store i32 0, ptr %3, align 8, !tbaa !178
  %4 = getelementptr inbounds nuw i8, ptr %0, i64 12
  store i8 1, ptr %4, align 4, !tbaa !179
  %5 = getelementptr inbounds nuw i8, ptr %0, i64 24
  store i32 0, ptr %5, align 8, !tbaa !180
  %6 = getelementptr inbounds nuw i8, ptr %0, i64 32
  store ptr null, ptr %6, align 8, !tbaa !181
  %7 = getelementptr inbounds nuw i8, ptr %0, i64 40
  store ptr %5, ptr %7, align 8, !tbaa !182
  %8 = getelementptr inbounds nuw i8, ptr %0, i64 48
  store ptr %5, ptr %8, align 8, !tbaa !183
  %9 = getelementptr inbounds nuw i8, ptr %0, i64 56
  store i64 0, ptr %9, align 8, !tbaa !184
  ret void
}